; Function Attrs: mustprogress uwtable
define hidden noundef nonnull ptr @_ZN17duckdb_libpgquery8repallocEPvm(ptr noundef readonly captures(none) %0, i64 noundef %1) local_unnamed_addr #0 {
  %3 = getelementptr inbounds i8, ptr %0, i64 -8
  %.0.copyload = load i64, ptr %3, align 1
  %4 = add i64 %1, 15
  %5 = and i64 %4, -8
  %6 = tail call align 8 ptr @llvm.threadlocal.address.p0(ptr align 8 @_ZN17duckdb_libpgqueryL15pg_parser_stateE)
  %7 = getelementptr inbounds nuw i8, ptr %6, i64 8200
  %8 = load i64, ptr %7, align 8, !tbaa !3
  %9 = add i64 %8, %5
  %10 = icmp ugt i64 %9, 10240
  br i1 %10, label %11, label %_ZN17duckdb_libpgquery6pallocEm.exit

11:                                               ; preds = %2
  tail call fastcc void @_ZN17duckdb_libpgqueryL12allocate_newEPNS_19pg_parser_state_strEm(ptr noundef %6, i64 noundef %5)
  %.pre.i = load i64, ptr %7, align 8, !tbaa !3
  br label %_ZN17duckdb_libpgquery6pallocEm.exit

_ZN17duckdb_libpgquery6pallocEm.exit:             ; preds = %2, %11
  %12 = phi i64 [ %.pre.i, %11 ], [ %8, %2 ]
  %13 = getelementptr inbounds nuw i8, ptr %6, i64 8216
  %14 = load ptr, ptr %13, align 8, !tbaa !11
  %15 = getelementptr inbounds nuw i8, ptr %6, i64 8208
  %16 = load i64, ptr %15, align 8, !tbaa !12
  %17 = getelementptr ptr, ptr %14, i64 %16
  %18 = getelementptr i8, ptr %17, i64 -8
  %19 = load ptr, ptr %18, align 8, !tbaa !13
  %20 = getelementptr inbounds nuw i8, ptr %19, i64 %12
  store i64 %1, ptr %20, align 1
  %21 = getelementptr inbounds nuw i8, ptr %20, i64 8
  tail call void @llvm.memset.p0.i64(ptr nonnull align 1 %21, i8 0, i64 %1, i1 false)
  %22 = load i64, ptr %7, align 8, !tbaa !3
  %23 = add i64 %22, %5
  store i64 %23, ptr %7, align 8, !tbaa !3
  tail call void @llvm.memcpy.p0.p0.i64(ptr nonnull align 1 %21, ptr nonnull align 1 %0, i64 %.0.copyload, i1 false)
  ret ptr %21
}